; Function Attrs: nounwind uwtable
define internal void @typevar_dealloc(ptr noundef %0) #0 {
  %2 = getelementptr i8, ptr %0, i64 8
  %.val18 = load ptr, ptr %2, align 8, !tbaa !18
  %3 = getelementptr i8, ptr %0, i64 -16
  %4 = getelementptr i8, ptr %0, i64 -8
  %.val.i = load i64, ptr %4, align 8, !tbaa !113
  %5 = and i64 %.val.i, -4
  %6 = inttoptr i64 %5 to ptr
  %.val9.i = load i64, ptr %3, align 8, !tbaa !114
  %7 = and i64 %.val9.i, -4
  %8 = inttoptr i64 %7 to ptr
  %9 = load i64, ptr %6, align 8, !tbaa !114
  %10 = and i64 %9, 3
  %11 = or disjoint i64 %10, %7
  store i64 %11, ptr %6, align 8, !tbaa !114
  %12 = getelementptr inbounds nuw i8, ptr %8, i64 8
  %13 = load i64, ptr %12, align 8, !tbaa !113
  %14 = and i64 %13, 3
  %15 = or disjoint i64 %14, %5
  store i64 %15, ptr %12, align 8, !tbaa !113
  store i64 0, ptr %3, align 8, !tbaa !114
  %16 = load i64, ptr %4, align 8, !tbaa !113
  %17 = and i64 %16, 1
  store i64 %17, ptr %4, align 8, !tbaa !113
  %18 = getelementptr inbounds nuw i8, ptr %0, i64 16
  %19 = load ptr, ptr %18, align 8, !tbaa !118
  %20 = load i32, ptr %19, align 8, !tbaa !27
  %.not.i15 = icmp sgt i32 %20, -1
  br i1 %.not.i15, label %21, label %Py_DECREF.exit16

21:                                               ; preds = %1
  %22 = add nsw i32 %20, -1
  store i32 %22, ptr %19, align 8, !tbaa !27
  %23 = icmp eq i32 %22, 0
  br i1 %23, label %24, label %Py_DECREF.exit16

24:                                               ; preds = %21
  tail call void @_Py_Dealloc(ptr noundef nonnull %19) #8
  br label %Py_DECREF.exit16

Py_DECREF.exit16:                                 ; preds = %1, %21, %24
  %25 = getelementptr inbounds nuw i8, ptr %0, i64 24
  %26 = load ptr, ptr %25, align 8, !tbaa !120
  %.not.i19 = icmp eq ptr %26, null
  br i1 %.not.i19, label %Py_XDECREF.exit, label %27

27:                                               ; preds = %Py_DECREF.exit16
  %28 = load i32, ptr %26, align 8, !tbaa !27
  %.not.i.i = icmp sgt i32 %28, -1
  br i1 %.not.i.i, label %29, label %Py_XDECREF.exit

29:                                               ; preds = %27
  %30 = add nsw i32 %28, -1
  store i32 %30, ptr %26, align 8, !tbaa !27
  %31 = icmp eq i32 %30, 0
  br i1 %31, label %32, label %Py_XDECREF.exit

32:                                               ; preds = %29
  tail call void @_Py_Dealloc(ptr noundef nonnull %26) #8
  br label %Py_XDECREF.exit

Py_XDECREF.exit:                                  ; preds = %Py_DECREF.exit16, %27, %29, %32
  %33 = getelementptr inbounds nuw i8, ptr %0, i64 32
  %34 = load ptr, ptr %33, align 8, !tbaa !121
  %.not.i20 = icmp eq ptr %34, null
  br i1 %.not.i20, label %Py_XDECREF.exit22, label %35

35:                                               ; preds = %Py_XDECREF.exit
  %36 = load i32, ptr %34, align 8, !tbaa !27
  %.not.i.i21 = icmp sgt i32 %36, -1
  br i1 %.not.i.i21, label %37, label %Py_XDECREF.exit22

37:                                               ; preds = %35
  %38 = add nsw i32 %36, -1
  store i32 %38, ptr %34, align 8, !tbaa !27
  %39 = icmp eq i32 %38, 0
  br i1 %39, label %40, label %Py_XDECREF.exit22

40:                                               ; preds = %37
  tail call void @_Py_Dealloc(ptr noundef nonnull %34) #8
  br label %Py_XDECREF.exit22

Py_XDECREF.exit22:                                ; preds = %Py_XDECREF.exit, %35, %37, %40
  %41 = getelementptr inbounds nuw i8, ptr %0, i64 40
  %42 = load ptr, ptr %41, align 8, !tbaa !122
  %.not.i23 = icmp eq ptr %42, null
  br i1 %.not.i23, label %Py_XDECREF.exit25, label %43

43:                                               ; preds = %Py_XDECREF.exit22
  %44 = load i32, ptr %42, align 8, !tbaa !27
  %.not.i.i24 = icmp sgt i32 %44, -1
  br i1 %.not.i.i24, label %45, label %Py_XDECREF.exit25

45:                                               ; preds = %43
  %46 = add nsw i32 %44, -1
  store i32 %46, ptr %42, align 8, !tbaa !27
  %47 = icmp eq i32 %46, 0
  br i1 %47, label %48, label %Py_XDECREF.exit25

48:                                               ; preds = %45
  tail call void @_Py_Dealloc(ptr noundef nonnull %42) #8
  br label %Py_XDECREF.exit25

Py_XDECREF.exit25:                                ; preds = %Py_XDECREF.exit22, %43, %45, %48
  %49 = getelementptr inbounds nuw i8, ptr %0, i64 48
  %50 = load ptr, ptr %49, align 8, !tbaa !123
  %.not.i26 = icmp eq ptr %50, null
  br i1 %.not.i26, label %Py_XDECREF.exit28, label %51

51:                                               ; preds = %Py_XDECREF.exit25
  %52 = load i32, ptr %50, align 8, !tbaa !27
  %.not.i.i27 = icmp sgt i32 %52, -1
  br i1 %.not.i.i27, label %53, label %Py_XDECREF.exit28

53:                                               ; preds = %51
  %54 = add nsw i32 %52, -1
  store i32 %54, ptr %50, align 8, !tbaa !27
  %55 = icmp eq i32 %54, 0
  br i1 %55, label %56, label %Py_XDECREF.exit28

56:                                               ; preds = %53
  tail call void @_Py_Dealloc(ptr noundef nonnull %50) #8
  br label %Py_XDECREF.exit28

Py_XDECREF.exit28:                                ; preds = %Py_XDECREF.exit25, %51, %53, %56
  %57 = getelementptr inbounds nuw i8, ptr %0, i64 56
  %58 = load ptr, ptr %57, align 8, !tbaa !138
  %.not.i29 = icmp eq ptr %58, null
  br i1 %.not.i29, label %Py_XDECREF.exit31, label %59

59:                                               ; preds = %Py_XDECREF.exit28
  %60 = load i32, ptr %58, align 8, !tbaa !27
  %.not.i.i30 = icmp sgt i32 %60, -1
  br i1 %.not.i.i30, label %61, label %Py_XDECREF.exit31

61:                                               ; preds = %59
  %62 = add nsw i32 %60, -1
  store i32 %62, ptr %58, align 8, !tbaa !27
  %63 = icmp eq i32 %62, 0
  br i1 %63, label %64, label %Py_XDECREF.exit31

64:                                               ; preds = %61
  tail call void @_Py_Dealloc(ptr noundef nonnull %58) #8
  br label %Py_XDECREF.exit31

Py_XDECREF.exit31:                                ; preds = %Py_XDECREF.exit28, %59, %61, %64
  %65 = getelementptr inbounds nuw i8, ptr %0, i64 64
  %66 = load ptr, ptr %65, align 8, !tbaa !139
  %.not.i32 = icmp eq ptr %66, null
  br i1 %.not.i32, label %Py_XDECREF.exit34, label %67

67:                                               ; preds = %Py_XDECREF.exit31
  %68 = load i32, ptr %66, align 8, !tbaa !27
  %.not.i.i33 = icmp sgt i32 %68, -1
  br i1 %.not.i.i33, label %69, label %Py_XDECREF.exit34

69:                                               ; preds = %67
  %70 = add nsw i32 %68, -1
  store i32 %70, ptr %66, align 8, !tbaa !27
  %71 = icmp eq i32 %70, 0
  br i1 %71, label %72, label %Py_XDECREF.exit34

72:                                               ; preds = %69
  tail call void @_Py_Dealloc(ptr noundef nonnull %66) #8
  br label %Py_XDECREF.exit34

Py_XDECREF.exit34:                                ; preds = %Py_XDECREF.exit31, %67, %69, %72
  tail call void @PyObject_ClearManagedDict(ptr noundef nonnull %0) #8
  tail call void @PyObject_ClearWeakRefs(ptr noundef nonnull %0) #8
  %.val = load ptr, ptr %2, align 8, !tbaa !18
  %73 = getelementptr inbounds nuw i8, ptr %.val, i64 320
  %74 = load ptr, ptr %73, align 8, !tbaa !116
  tail call void %74(ptr noundef nonnull %0) #8
  %75 = load i32, ptr %.val18, align 8, !tbaa !27
  %.not.i = icmp sgt i32 %75, -1
  br i1 %.not.i, label %76, label %Py_DECREF.exit

76:                                               ; preds = %Py_XDECREF.exit34
  %77 = add nsw i32 %75, -1
  store i32 %77, ptr %.val18, align 8, !tbaa !27
  %78 = icmp eq i32 %77, 0
  br i1 %78, label %79, label %Py_DECREF.exit

79:                                               ; preds = %76
  tail call void @_Py_Dealloc(ptr noundef nonnull %.val18) #8
  br label %Py_DECREF.exit

Py_DECREF.exit:                                   ; preds = %Py_XDECREF.exit34, %76, %79
  ret void
}